target datalayout = "e-m:e-p270:32:32-p271:32:32-p272:64:64-i64:64-i128:128-f80:128-n8:16:32:64-S128"
target triple = "x86_64-pc-linux-gnu"

%struct._lv_font_t = type { ptr, ptr, ptr, i32, i32, i8, i8, i8, ptr, ptr, ptr }
%struct.lv_color_t = type { i8, i8, i8 }
%struct.lv_draw_dsc_base_t = type { ptr, i32, i32, i32, ptr, i64, ptr }
%struct.lv_draw_label_dsc_t = type { %struct.lv_draw_dsc_base_t, ptr, i32, ptr, i32, i32, %struct.lv_color_t, %struct.lv_color_t, %struct.lv_color_t, i32, i32, i32, i32, i32, i8, i32, i32, i32, i8, ptr }

@lv_font_montserrat_14 = external constant %struct._lv_font_t, align 8

; Function Attrs: inlinehint nounwind uwtable
define internal void @lv_memzero(ptr noundef %0, i64 noundef %1) #1 {
  %3 = alloca ptr, align 8
  %4 = alloca i64, align 8
  store ptr %0, ptr %3, align 8, !tbaa !3
  store i64 %1, ptr %4, align 8, !tbaa !24
  %5 = load ptr, ptr %3, align 8, !tbaa !3
  %6 = load i64, ptr %4, align 8, !tbaa !24
  call void @lv_memset(ptr noundef %5, i8 noundef zeroext 0, i64 noundef %6)
  ret void
}

; Function Attrs: nounwind uwtable
define void @lv_draw_label_dsc_init(ptr noundef %0) #0 {
  %2 = alloca ptr, align 8
  %3 = alloca %struct.lv_color_t, align 1
  %4 = alloca %struct.lv_color_t, align 1
  %5 = alloca %struct.lv_color_t, align 1
  store ptr %0, ptr %2, align 8, !tbaa !3
  %6 = load ptr, ptr %2, align 8, !tbaa !3
  call void @lv_memzero(ptr noundef %6, i64 noundef 144)
  %7 = load ptr, ptr %2, align 8, !tbaa !3
  %8 = getelementptr inbounds nuw %struct.lv_draw_label_dsc_t, ptr %7, i32 0, i32 14
  store i8 -1, ptr %8, align 8, !tbaa !25
  %9 = load ptr, ptr %2, align 8, !tbaa !3
  %10 = getelementptr inbounds nuw %struct.lv_draw_label_dsc_t, ptr %9, i32 0, i32 6
  call void @llvm.lifetime.start.p0(i64 3, ptr %3) #5
  %11 = call i24 @lv_color_black()
  store i24 %11, ptr %3, align 1
  call void @llvm.memcpy.p0.p0.i64(ptr align 8 %10, ptr align 1 %3, i64 3, i1 false), !tbaa.struct !17
  call void @llvm.lifetime.end.p0(i64 3, ptr %3) #5
  %12 = load ptr, ptr %2, align 8, !tbaa !3
  %13 = getelementptr inbounds nuw %struct.lv_draw_label_dsc_t, ptr %12, i32 0, i32 2
  store i32 -1, ptr %13, align 8, !tbaa !29
  %14 = load ptr, ptr %2, align 8, !tbaa !3
  %15 = getelementptr inbounds nuw %struct.lv_draw_label_dsc_t, ptr %14, i32 0, i32 3
  store ptr @lv_font_montserrat_14, ptr %15, align 8, !tbaa !30
  %16 = load ptr, ptr %2, align 8, !tbaa !3
  %17 = getelementptr inbounds nuw %struct.lv_draw_label_dsc_t, ptr %16, i32 0, i32 4
  store i32 65535, ptr %17, align 8, !tbaa !31
  %18 = load ptr, ptr %2, align 8, !tbaa !3
  %19 = getelementptr inbounds nuw %struct.lv_draw_label_dsc_t, ptr %18, i32 0, i32 5
  store i32 65535, ptr %19, align 4, !tbaa !32
  %20 = load ptr, ptr %2, align 8, !tbaa !3
  %21 = getelementptr inbounds nuw %struct.lv_draw_label_dsc_t, ptr %20, i32 0, i32 7
  call void @llvm.lifetime.start.p0(i64 3, ptr %4) #5
  %22 = call i24 @lv_color_black()
  store i24 %22, ptr %4, align 1
  call void @llvm.memcpy.p0.p0.i64(ptr align 1 %21, ptr align 1 %4, i64 3, i1 false), !tbaa.struct !17
  call void @llvm.lifetime.end.p0(i64 3, ptr %4) #5
  %23 = load ptr, ptr %2, align 8, !tbaa !3
  %24 = getelementptr inbounds nuw %struct.lv_draw_label_dsc_t, ptr %23, i32 0, i32 8
  call void @llvm.lifetime.start.p0(i64 3, ptr %5) #5
  %25 = call i24 @lv_palette_main(i32 noundef 5)
  store i24 %25, ptr %5, align 1
  call void @llvm.memcpy.p0.p0.i64(ptr align 2 %24, ptr align 1 %5, i64 3, i1 false), !tbaa.struct !17
  call void @llvm.lifetime.end.p0(i64 3, ptr %5) #5
  %26 = load ptr, ptr %2, align 8, !tbaa !3
  %27 = getelementptr inbounds nuw %struct.lv_draw_label_dsc_t, ptr %26, i32 0, i32 15
  store i32 0, ptr %27, align 4, !tbaa !33
  %28 = load ptr, ptr %2, align 8, !tbaa !3
  %29 = getelementptr inbounds nuw %struct.lv_draw_label_dsc_t, ptr %28, i32 0, i32 0
  %30 = getelementptr inbounds nuw %struct.lv_draw_dsc_base_t, ptr %29, i32 0, i32 5
  store i64 144, ptr %30, align 8, !tbaa !34
  ret void
}