; Function Attrs: nounwind uwtable
define void @lv_draw_label_dsc_init(ptr noundef %0) local_unnamed_addr #0 {
  tail call void @lv_memset(ptr noundef %0, i8 noundef zeroext 0, i64 noundef 144) #6
  %2 = getelementptr inbounds nuw i8, ptr %0, i64 112
  store i8 -1, ptr %2, align 8, !tbaa !21
  %3 = getelementptr inbounds nuw i8, ptr %0, i64 80
  %4 = tail call i24 @lv_color_black() #6
  store i24 %4, ptr %3, align 8
  %5 = getelementptr inbounds nuw i8, ptr %0, i64 56
  store i32 -1, ptr %5, align 8, !tbaa !25
  %6 = getelementptr inbounds nuw i8, ptr %0, i64 64
  store ptr @lv_font_montserrat_14, ptr %6, align 8, !tbaa !26
  %7 = getelementptr inbounds nuw i8, ptr %0, i64 72
  store i32 65535, ptr %7, align 8, !tbaa !27
  %8 = getelementptr inbounds nuw i8, ptr %0, i64 76
  store i32 65535, ptr %8, align 4, !tbaa !28
  %9 = getelementptr inbounds nuw i8, ptr %0, i64 83
  %10 = tail call i24 @lv_color_black() #6
  store i24 %10, ptr %9, align 1
  %11 = getelementptr inbounds nuw i8, ptr %0, i64 86
  %12 = tail call i24 @lv_palette_main(i32 noundef 5) #6
  store i24 %12, ptr %11, align 2
  %13 = getelementptr inbounds nuw i8, ptr %0, i64 116
  store i32 0, ptr %13, align 4, !tbaa !29
  %14 = getelementptr inbounds nuw i8, ptr %0, i64 32
  store i64 144, ptr %14, align 8, !tbaa !30
  ret void
}